; Function Attrs: mustprogress nounwind uwtable
define void @_ZN8nanobind6detail14decref_checkedEP7_object(ptr noundef %0) local_unnamed_addr #9 personality ptr @__gxx_personality_v0 {
  %.not = icmp eq ptr %0, null
  br i1 %.not, label %_ZL10_Py_DECREFP7_object.exit, label %2

2:                                                ; preds = %1
  %3 = invoke i32 @PyGILState_Check()
          to label %4 unwind label %10

4:                                                ; preds = %2
  %.not2 = icmp eq i32 %3, 0
  br i1 %.not2, label %5, label %6

5:                                                ; preds = %4
  tail call void (ptr, ...) @_ZN8nanobind6detail4failEPKcz(ptr noundef nonnull @.str.9) #29
  unreachable

6:                                                ; preds = %4
  %7 = load i64, ptr %0, align 8
  %8 = add nsw i64 %7, -1
  store i64 %8, ptr %0, align 8
  %.not.i = icmp eq i64 %8, 0
  br i1 %.not.i, label %9, label %_ZL10_Py_DECREFP7_object.exit

9:                                                ; preds = %6
  invoke void @_Py_Dealloc(ptr noundef nonnull %0)
          to label %_ZL10_Py_DECREFP7_object.exit unwind label %10

_ZL10_Py_DECREFP7_object.exit:                    ; preds = %6, %9, %1
  ret void

10:                                               ; preds = %9, %2
  %11 = landingpad { ptr, i32 }
          catch ptr null
  %12 = extractvalue { ptr, i32 } %11, 0
  tail call void @__clang_call_terminate(ptr %12) #29
  unreachable
}